target datalayout = "e-m:e-p270:32:32-p271:32:32-p272:64:64-i64:64-i128:128-f80:128-n8:16:32:64-S128"
target triple = "x86_64-pc-linux-gnu"

@UseG1GC = external global i8, align 1
@GCPauseIntervalMillis = external global i64, align 8
@.str.9 = private unnamed_addr constant [70 x i8] c"MaxGCPauseMillis (%lu) must be less than GCPauseIntervalMillis (%lu)\0A\00", align 1

; Function Attrs: mustprogress nounwind uwtable
define hidden noundef i32 @_Z32MaxGCPauseMillisConstraintFuncG1mb(i64 noundef %0, i1 noundef zeroext %1) #1 {
  %3 = alloca i32, align 4
  %4 = alloca i64, align 8
  %5 = alloca i8, align 1
  store i64 %0, ptr %4, align 8
  %6 = zext i1 %1 to i8
  store i8 %6, ptr %5, align 1
  %7 = load i8, ptr @UseG1GC, align 1
  %8 = trunc i8 %7 to i1
  br i1 %8, label %9, label %20

9:                                                ; preds = %2
  %10 = call noundef zeroext i1 @_ZN7JVMFlag10is_cmdlineE12JVMFlagsEnum(i32 noundef 1158)
  br i1 %10, label %11, label %20

11:                                               ; preds = %9
  %12 = load i64, ptr %4, align 8
  %13 = load i64, ptr @GCPauseIntervalMillis, align 8
  %14 = icmp uge i64 %12, %13
  br i1 %14, label %15, label %20

15:                                               ; preds = %11
  %16 = load i8, ptr %5, align 1
  %17 = trunc i8 %16 to i1
  %18 = load i64, ptr %4, align 8
  %19 = load i64, ptr @GCPauseIntervalMillis, align 8
  call void (i1, ptr, ...) @_ZN7JVMFlag10printErrorEbPKcz(i1 noundef zeroext %17, ptr noundef @.str.9, i64 noundef %18, i64 noundef %19)
  store i32 6, ptr %3, align 4
  br label %21

20:                                               ; preds = %11, %9, %2
  store i32 0, ptr %3, align 4
  br label %21

21:                                               ; preds = %20, %15
  %22 = load i32, ptr %3, align 4
  ret i32 %22
}