; Function Attrs: mustprogress nounwind uwtable
define hidden noundef range(i32 0, 7) i32 @_Z32MaxGCPauseMillisConstraintFuncG1mb(i64 noundef %0, i1 noundef zeroext %1) local_unnamed_addr #0 {
  %3 = load i8, ptr @UseG1GC, align 1
  %4 = trunc i8 %3 to i1
  br i1 %4, label %5, label %10

5:                                                ; preds = %2
  %6 = tail call noundef zeroext i1 @_ZN7JVMFlag10is_cmdlineE12JVMFlagsEnum(i32 noundef 1158) #4
  br i1 %6, label %7, label %10

7:                                                ; preds = %5
  %8 = load i64, ptr @GCPauseIntervalMillis, align 8
  %.not = icmp ugt i64 %8, %0
  br i1 %.not, label %10, label %9

9:                                                ; preds = %7
  tail call void (i1, ptr, ...) @_ZN7JVMFlag10printErrorEbPKcz(i1 noundef zeroext %1, ptr noundef nonnull @.str.9, i64 noundef %0, i64 noundef %8) #4
  br label %10

10:                                               ; preds = %2, %5, %7, %9
  %.0 = phi i32 [ 6, %9 ], [ 0, %7 ], [ 0, %5 ], [ 0, %2 ]
  ret i32 %.0
}